; Function Attrs: mustprogress uwtable
define internal noundef ptr @_ZL21object_list_get_entryPvi(ptr noundef readonly %0, i32 noundef %1) #0 personality ptr @__gxx_personality_v0 {
  %3 = alloca %class.QVariant, align 8
  %4 = alloca %class.QVariant, align 8
  %.not = icmp eq ptr %0, null
  br i1 %.not, label %22, label %5

5:                                                ; preds = %2
  %6 = load ptr, ptr %0, align 8
  %.not7 = icmp eq ptr %6, null
  br i1 %.not7, label %22, label %7

7:                                                ; preds = %5
  call void @llvm.lifetime.start.p0(i64 32, ptr nonnull %4)
  %8 = sext i32 %1 to i64
  call void @llvm.lifetime.start.p0(i64 32, ptr nonnull %3)
  call void @llvm.memset.p0.i64(ptr noundef nonnull align 8 dereferenceable(24) %3, i8 0, i64 24, i1 false), !noalias !4
  %9 = getelementptr inbounds i8, ptr %3, i64 24
  store i64 2, ptr %9, align 8, !noalias !4
  %10 = getelementptr inbounds i8, ptr %6, i64 32
  %11 = load i64, ptr %10, align 8, !noalias !7
  %12 = icmp ugt i64 %11, %8
  %13 = getelementptr inbounds i8, ptr %6, i64 24
  %14 = load ptr, ptr %13, align 8, !noalias !7
  %15 = getelementptr %class.QVariant, ptr %14, i64 %8
  %16 = select i1 %12, ptr %15, ptr %3
  invoke void @_ZN8QVariantC1ERKS_(ptr noundef nonnull align 8 dereferenceable(32) %4, ptr noundef nonnull align 8 dereferenceable(32) %16)
          to label %_ZNK5QListI8QVariantE5valueEx.exit.i unwind label %17

common.resume.i:                                  ; preds = %20, %17
  %.sink.i = phi ptr [ %4, %20 ], [ %3, %17 ]
  %common.resume.op.i = phi { ptr, i32 } [ %21, %20 ], [ %18, %17 ]
  call void @_ZN8QVariantD1Ev(ptr noundef nonnull align 8 dereferenceable(32) %.sink.i) #18
  resume { ptr, i32 } %common.resume.op.i

17:                                               ; preds = %7
  %18 = landingpad { ptr, i32 }
          cleanup
  br label %common.resume.i

_ZNK5QListI8QVariantE5valueEx.exit.i:             ; preds = %7
  call void @_ZN8QVariantD1Ev(ptr noundef nonnull align 8 dereferenceable(32) %3) #18
  call void @llvm.lifetime.end.p0(i64 32, ptr nonnull %3)
  %19 = invoke noundef ptr @_Z13qvariant_castIPvET_RK8QVariant(ptr noundef nonnull align 8 dereferenceable(32) %4)
          to label %_ZN17ExportObjectModel11objectEntryEi.exit unwind label %20

20:                                               ; preds = %_ZNK5QListI8QVariantE5valueEx.exit.i
  %21 = landingpad { ptr, i32 }
          cleanup
  br label %common.resume.i

_ZN17ExportObjectModel11objectEntryEi.exit:       ; preds = %_ZNK5QListI8QVariantE5valueEx.exit.i
  call void @_ZN8QVariantD1Ev(ptr noundef nonnull align 8 dereferenceable(32) %4) #18
  call void @llvm.lifetime.end.p0(i64 32, ptr nonnull %4)
  br label %22

22:                                               ; preds = %2, %5, %_ZN17ExportObjectModel11objectEntryEi.exit
  %.0 = phi ptr [ %19, %_ZN17ExportObjectModel11objectEntryEi.exit ], [ null, %5 ], [ null, %2 ]
  ret ptr %.0
}